target datalayout = "e-m:e-p270:32:32-p271:32:32-p272:64:64-i64:64-i128:128-f80:128-n8:16:32:64-S128"
target triple = "x86_64-unknown-linux-gnu"

%struct.HashMap = type { ptr, i32, i32 }
%struct.Scope = type { ptr, %struct.HashMap, %struct.HashMap }
%struct.Node = type { i32, ptr, ptr, ptr, ptr, ptr, ptr, ptr, ptr, ptr, ptr, ptr, ptr, ptr, ptr, ptr, ptr, i8, ptr, ptr, ptr, ptr, ptr, ptr, i64, i64, ptr, ptr, ptr, ptr, ptr, ptr, ptr, i64, x86_fp80 }
%struct.Token = type { i32, ptr, i64, x86_fp80, ptr, i32, ptr, ptr, ptr, ptr, i32, i32, i8, i8, ptr, ptr }
%struct.Obj = type { ptr, ptr, ptr, ptr, i8, i32, i32, i8, i8, i8, i8, i8, ptr, ptr, i8, ptr, ptr, ptr, ptr, ptr, i32, i8, i8, %struct.StringArray }
%struct.StringArray = type { ptr, i32, i32 }
%struct.Type = type { i32, i32, i32, i8, i8, ptr, ptr, ptr, ptr, i32, ptr, ptr, ptr, i8, i8, ptr, ptr, i8, ptr }
%struct.VarScope = type { ptr, ptr, ptr, i32 }

@.str.2 = private unnamed_addr constant [2 x i8] c"?\00", align 1
@.str.3 = private unnamed_addr constant [2 x i8] c":\00", align 1
@.str.4 = private unnamed_addr constant [1 x i8] zeroinitializer, align 1
@.str.5 = private unnamed_addr constant [3 x i8] c"||\00", align 1
@scope = internal global ptr @.compoundliteral, align 8
@locals = internal global ptr null, align 8

; Function Attrs: nounwind uwtable
define internal ptr @push_scope(ptr noundef %name) #0 {
entry:
  %name.addr = alloca ptr, align 8
  %sc = alloca ptr, align 8
  store ptr %name, ptr %name.addr, align 8
  %call = call noalias ptr @calloc(i64 noundef 1, i64 noundef 32) #8
  store ptr %call, ptr %sc, align 8
  %0 = load ptr, ptr @scope, align 8
  %vars = getelementptr inbounds %struct.Scope, ptr %0, i32 0, i32 1
  %1 = load ptr, ptr %name.addr, align 8
  %2 = load ptr, ptr %sc, align 8
  call void @hashmap_put(ptr noundef %vars, ptr noundef %1, ptr noundef %2)
  %3 = load ptr, ptr %sc, align 8
  ret ptr %3
}

; Function Attrs: nounwind uwtable
define internal ptr @new_var(ptr noundef %name, ptr noundef %ty) #0 {
entry:
  %name.addr = alloca ptr, align 8
  %ty.addr = alloca ptr, align 8
  %var = alloca ptr, align 8
  store ptr %name, ptr %name.addr, align 8
  store ptr %ty, ptr %ty.addr, align 8
  %call = call noalias ptr @calloc(i64 noundef 1, i64 noundef 144) #8
  store ptr %call, ptr %var, align 8
  %0 = load ptr, ptr %name.addr, align 8
  %1 = load ptr, ptr %var, align 8
  %name1 = getelementptr inbounds %struct.Obj, ptr %1, i32 0, i32 1
  store ptr %0, ptr %name1, align 8
  %2 = load ptr, ptr %ty.addr, align 8
  %3 = load ptr, ptr %var, align 8
  %ty2 = getelementptr inbounds %struct.Obj, ptr %3, i32 0, i32 2
  store ptr %2, ptr %ty2, align 8
  %4 = load ptr, ptr %ty.addr, align 8
  %align = getelementptr inbounds %struct.Type, ptr %4, i32 0, i32 2
  %5 = load i32, ptr %align, align 8
  %6 = load ptr, ptr %var, align 8
  %align3 = getelementptr inbounds %struct.Obj, ptr %6, i32 0, i32 5
  store i32 %5, ptr %align3, align 4
  %7 = load ptr, ptr %var, align 8
  %8 = load ptr, ptr %name.addr, align 8
  %call4 = call ptr @push_scope(ptr noundef %8)
  %var5 = getelementptr inbounds %struct.VarScope, ptr %call4, i32 0, i32 0
  store ptr %7, ptr %var5, align 8
  %9 = load ptr, ptr %var, align 8
  ret ptr %9
}

; Function Attrs: nounwind uwtable
define internal ptr @new_node(i32 noundef %kind, ptr noundef %tok) #0 {
entry:
  %kind.addr = alloca i32, align 4
  %tok.addr = alloca ptr, align 8
  %node = alloca ptr, align 8
  store i32 %kind, ptr %kind.addr, align 4
  store ptr %tok, ptr %tok.addr, align 8
  %call = call noalias ptr @calloc(i64 noundef 1, i64 noundef 288) #8
  store ptr %call, ptr %node, align 8
  %0 = load i32, ptr %kind.addr, align 4
  %1 = load ptr, ptr %node, align 8
  %kind1 = getelementptr inbounds %struct.Node, ptr %1, i32 0, i32 0
  store i32 %0, ptr %kind1, align 16
  %2 = load ptr, ptr %tok.addr, align 8
  %3 = load ptr, ptr %node, align 8
  %tok2 = getelementptr inbounds %struct.Node, ptr %3, i32 0, i32 3
  store ptr %2, ptr %tok2, align 8
  %4 = load ptr, ptr %node, align 8
  ret ptr %4
}

; Function Attrs: nounwind uwtable
define internal ptr @new_binary(i32 noundef %kind, ptr noundef %lhs, ptr noundef %rhs, ptr noundef %tok) #0 {
entry:
  %kind.addr = alloca i32, align 4
  %lhs.addr = alloca ptr, align 8
  %rhs.addr = alloca ptr, align 8
  %tok.addr = alloca ptr, align 8
  %node = alloca ptr, align 8
  store i32 %kind, ptr %kind.addr, align 4
  store ptr %lhs, ptr %lhs.addr, align 8
  store ptr %rhs, ptr %rhs.addr, align 8
  store ptr %tok, ptr %tok.addr, align 8
  %0 = load i32, ptr %kind.addr, align 4
  %1 = load ptr, ptr %tok.addr, align 8
  %call = call ptr @new_node(i32 noundef %0, ptr noundef %1)
  store ptr %call, ptr %node, align 8
  %2 = load ptr, ptr %lhs.addr, align 8
  %3 = load ptr, ptr %node, align 8
  %lhs1 = getelementptr inbounds %struct.Node, ptr %3, i32 0, i32 4
  store ptr %2, ptr %lhs1, align 16
  %4 = load ptr, ptr %rhs.addr, align 8
  %5 = load ptr, ptr %node, align 8
  %rhs2 = getelementptr inbounds %struct.Node, ptr %5, i32 0, i32 5
  store ptr %4, ptr %rhs2, align 8
  %6 = load ptr, ptr %node, align 8
  ret ptr %6
}

; Function Attrs: nounwind uwtable
define internal ptr @new_var_node(ptr noundef %var, ptr noundef %tok) #0 {
entry:
  %var.addr = alloca ptr, align 8
  %tok.addr = alloca ptr, align 8
  %node = alloca ptr, align 8
  store ptr %var, ptr %var.addr, align 8
  store ptr %tok, ptr %tok.addr, align 8
  %0 = load ptr, ptr %tok.addr, align 8
  %call = call ptr @new_node(i32 noundef 40, ptr noundef %0)
  store ptr %call, ptr %node, align 8
  %1 = load ptr, ptr %var.addr, align 8
  %2 = load ptr, ptr %node, align 8
  %var1 = getelementptr inbounds %struct.Node, ptr %2, i32 0, i32 32
  store ptr %1, ptr %var1, align 16
  %3 = load ptr, ptr %node, align 8
  ret ptr %3
}

; Function Attrs: nounwind uwtable
define internal ptr @new_lvar(ptr noundef %name, ptr noundef %ty) #0 {
entry:
  %name.addr = alloca ptr, align 8
  %ty.addr = alloca ptr, align 8
  %var = alloca ptr, align 8
  store ptr %name, ptr %name.addr, align 8
  store ptr %ty, ptr %ty.addr, align 8
  %0 = load ptr, ptr %name.addr, align 8
  %1 = load ptr, ptr %ty.addr, align 8
  %call = call ptr @new_var(ptr noundef %0, ptr noundef %1)
  store ptr %call, ptr %var, align 8
  %2 = load ptr, ptr %var, align 8
  %is_local = getelementptr inbounds %struct.Obj, ptr %2, i32 0, i32 4
  store i8 1, ptr %is_local, align 8
  %3 = load ptr, ptr @locals, align 8
  %4 = load ptr, ptr %var, align 8
  %next = getelementptr inbounds %struct.Obj, ptr %4, i32 0, i32 0
  store ptr %3, ptr %next, align 8
  %5 = load ptr, ptr %var, align 8
  store ptr %5, ptr @locals, align 8
  %6 = load ptr, ptr %var, align 8
  ret ptr %6
}

; Function Attrs: nounwind uwtable
define internal ptr @logor(ptr noundef %rest, ptr noundef %tok) #0 {
entry:
  %rest.addr = alloca ptr, align 8
  %tok.addr = alloca ptr, align 8
  %node = alloca ptr, align 8
  %start = alloca ptr, align 8
  store ptr %rest, ptr %rest.addr, align 8
  store ptr %tok, ptr %tok.addr, align 8
  %0 = load ptr, ptr %tok.addr, align 8
  %call = call ptr @logand(ptr noundef %tok.addr, ptr noundef %0)
  store ptr %call, ptr %node, align 8
  br label %while.cond

while.cond:                                       ; preds = %while.body, %entry
  %1 = load ptr, ptr %tok.addr, align 8
  %call1 = call zeroext i1 @equal(ptr noundef %1, ptr noundef @.str.5)
  br i1 %call1, label %while.body, label %while.end

while.body:                                       ; preds = %while.cond
  %2 = load ptr, ptr %tok.addr, align 8
  store ptr %2, ptr %start, align 8
  %3 = load ptr, ptr %node, align 8
  %4 = load ptr, ptr %tok.addr, align 8
  %next = getelementptr inbounds %struct.Token, ptr %4, i32 0, i32 1
  %5 = load ptr, ptr %next, align 8
  %call2 = call ptr @logand(ptr noundef %tok.addr, ptr noundef %5)
  %6 = load ptr, ptr %start, align 8
  %call3 = call ptr @new_binary(i32 noundef 25, ptr noundef %3, ptr noundef %call2, ptr noundef %6)
  store ptr %call3, ptr %node, align 8
  br label %while.cond, !llvm.loop !16

while.end:                                        ; preds = %while.cond
  %7 = load ptr, ptr %tok.addr, align 8
  %8 = load ptr, ptr %rest.addr, align 8
  store ptr %7, ptr %8, align 8
  %9 = load ptr, ptr %node, align 8
  ret ptr %9
}

; Function Attrs: nounwind uwtable
define internal ptr @conditional(ptr noundef %rest, ptr noundef %tok) #0 {
entry:
  %retval = alloca ptr, align 8
  %rest.addr = alloca ptr, align 8
  %tok.addr = alloca ptr, align 8
  %cond = alloca ptr, align 8
  %var = alloca ptr, align 8
  %lhs = alloca ptr, align 8
  %rhs = alloca ptr, align 8
  %node = alloca ptr, align 8
  store ptr %rest, ptr %rest.addr, align 8
  store ptr %tok, ptr %tok.addr, align 8
  %0 = load ptr, ptr %tok.addr, align 8
  %call = call ptr @logor(ptr noundef %tok.addr, ptr noundef %0)
  store ptr %call, ptr %cond, align 8
  %1 = load ptr, ptr %tok.addr, align 8
  %call1 = call zeroext i1 @equal(ptr noundef %1, ptr noundef @.str.2)
  br i1 %call1, label %if.end, label %if.then

if.then:                                          ; preds = %entry
  %2 = load ptr, ptr %tok.addr, align 8
  %3 = load ptr, ptr %rest.addr, align 8
  store ptr %2, ptr %3, align 8
  %4 = load ptr, ptr %cond, align 8
  store ptr %4, ptr %retval, align 8
  br label %return

if.end:                                           ; preds = %entry
  %5 = load ptr, ptr %tok.addr, align 8
  %next = getelementptr inbounds %struct.Token, ptr %5, i32 0, i32 1
  %6 = load ptr, ptr %next, align 8
  %call2 = call zeroext i1 @equal(ptr noundef %6, ptr noundef @.str.3)
  br i1 %call2, label %if.then3, label %if.end15

if.then3:                                         ; preds = %if.end
  %7 = load ptr, ptr %cond, align 8
  call void @add_type(ptr noundef %7)
  %8 = load ptr, ptr %cond, align 8
  %ty = getelementptr inbounds %struct.Node, ptr %8, i32 0, i32 2
  %9 = load ptr, ptr %ty, align 16
  %call4 = call ptr @new_lvar(ptr noundef @.str.4, ptr noundef %9)
  store ptr %call4, ptr %var, align 8
  %10 = load ptr, ptr %var, align 8
  %11 = load ptr, ptr %tok.addr, align 8
  %call5 = call ptr @new_var_node(ptr noundef %10, ptr noundef %11)
  %12 = load ptr, ptr %cond, align 8
  %13 = load ptr, ptr %tok.addr, align 8
  %call6 = call ptr @new_binary(i32 noundef 16, ptr noundef %call5, ptr noundef %12, ptr noundef %13)
  store ptr %call6, ptr %lhs, align 8
  %14 = load ptr, ptr %tok.addr, align 8
  %call7 = call ptr @new_node(i32 noundef 17, ptr noundef %14)
  store ptr %call7, ptr %rhs, align 8
  %15 = load ptr, ptr %var, align 8
  %16 = load ptr, ptr %tok.addr, align 8
  %call8 = call ptr @new_var_node(ptr noundef %15, ptr noundef %16)
  %17 = load ptr, ptr %rhs, align 8
  %cond9 = getelementptr inbounds %struct.Node, ptr %17, i32 0, i32 6
  store ptr %call8, ptr %cond9, align 16
  %18 = load ptr, ptr %var, align 8
  %19 = load ptr, ptr %tok.addr, align 8
  %call10 = call ptr @new_var_node(ptr noundef %18, ptr noundef %19)
  %20 = load ptr, ptr %rhs, align 8
  %then = getelementptr inbounds %struct.Node, ptr %20, i32 0, i32 7
  store ptr %call10, ptr %then, align 8
  %21 = load ptr, ptr %rest.addr, align 8
  %22 = load ptr, ptr %tok.addr, align 8
  %next11 = getelementptr inbounds %struct.Token, ptr %22, i32 0, i32 1
  %23 = load ptr, ptr %next11, align 8
  %next12 = getelementptr inbounds %struct.Token, ptr %23, i32 0, i32 1
  %24 = load ptr, ptr %next12, align 8
  %call13 = call ptr @conditional(ptr noundef %21, ptr noundef %24)
  %25 = load ptr, ptr %rhs, align 8
  %els = getelementptr inbounds %struct.Node, ptr %25, i32 0, i32 8
  store ptr %call13, ptr %els, align 16
  %26 = load ptr, ptr %lhs, align 8
  %27 = load ptr, ptr %rhs, align 8
  %28 = load ptr, ptr %tok.addr, align 8
  %call14 = call ptr @new_binary(i32 noundef 18, ptr noundef %26, ptr noundef %27, ptr noundef %28)
  store ptr %call14, ptr %retval, align 8
  br label %return

if.end15:                                         ; preds = %if.end
  %29 = load ptr, ptr %tok.addr, align 8
  %call16 = call ptr @new_node(i32 noundef 17, ptr noundef %29)
  store ptr %call16, ptr %node, align 8
  %30 = load ptr, ptr %cond, align 8
  %31 = load ptr, ptr %node, align 8
  %cond17 = getelementptr inbounds %struct.Node, ptr %31, i32 0, i32 6
  store ptr %30, ptr %cond17, align 16
  %32 = load ptr, ptr %tok.addr, align 8
  %next18 = getelementptr inbounds %struct.Token, ptr %32, i32 0, i32 1
  %33 = load ptr, ptr %next18, align 8
  %call19 = call ptr @expr(ptr noundef %tok.addr, ptr noundef %33)
  %34 = load ptr, ptr %node, align 8
  %then20 = getelementptr inbounds %struct.Node, ptr %34, i32 0, i32 7
  store ptr %call19, ptr %then20, align 8
  %35 = load ptr, ptr %tok.addr, align 8
  %call21 = call ptr @skip(ptr noundef %35, ptr noundef @.str.3)
  store ptr %call21, ptr %tok.addr, align 8
  %36 = load ptr, ptr %rest.addr, align 8
  %37 = load ptr, ptr %tok.addr, align 8
  %call22 = call ptr @conditional(ptr noundef %36, ptr noundef %37)
  %38 = load ptr, ptr %node, align 8
  %els23 = getelementptr inbounds %struct.Node, ptr %38, i32 0, i32 8
  store ptr %call22, ptr %els23, align 16
  %39 = load ptr, ptr %node, align 8
  store ptr %39, ptr %retval, align 8
  br label %return

return:                                           ; preds = %if.end15, %if.then3, %if.then
  %40 = load ptr, ptr %retval, align 8
  ret ptr %40
}