; Function Attrs: nounwind uwtable
define internal fastcc ptr @conditional(ptr noundef %rest, ptr noundef %tok) unnamed_addr #0 {
entry:
  %tok.addr.i = alloca ptr, align 8
  %tok.addr = alloca ptr, align 8
  call void @llvm.lifetime.start.p0(i64 8, ptr nonnull %tok.addr.i)
  store ptr %tok, ptr %tok.addr.i, align 8
  %call.i = call fastcc ptr @logand(ptr noundef nonnull %tok.addr.i, ptr noundef %tok)
  %0 = load ptr, ptr %tok.addr.i, align 8
  %call1.i35 = tail call zeroext i1 @equal(ptr noundef %0, ptr noundef nonnull @.str.5) #13
  br i1 %call1.i35, label %while.body.i, label %logor.exit

while.body.i:                                     ; preds = %entry, %while.body.i
  %1 = phi ptr [ %3, %while.body.i ], [ %0, %entry ]
  %node.0.i36 = phi ptr [ %call.i.i31, %while.body.i ], [ %call.i, %entry ]
  %next.i = getelementptr inbounds %struct.Token, ptr %1, i64 0, i32 1
  %2 = load ptr, ptr %next.i, align 8
  %call2.i = call fastcc ptr @logand(ptr noundef nonnull %tok.addr.i, ptr noundef %2)
  %call.i.i31 = tail call noalias noundef dereferenceable_or_null(288) ptr @calloc(i64 noundef 1, i64 noundef 288) #14
  store i32 25, ptr %call.i.i31, align 16
  %tok2.i.i32 = getelementptr inbounds %struct.Node, ptr %call.i.i31, i64 0, i32 3
  store ptr %1, ptr %tok2.i.i32, align 8
  %lhs1.i33 = getelementptr inbounds %struct.Node, ptr %call.i.i31, i64 0, i32 4
  store ptr %node.0.i36, ptr %lhs1.i33, align 16
  %rhs2.i34 = getelementptr inbounds %struct.Node, ptr %call.i.i31, i64 0, i32 5
  store ptr %call2.i, ptr %rhs2.i34, align 8
  %3 = load ptr, ptr %tok.addr.i, align 8
  %call1.i = tail call zeroext i1 @equal(ptr noundef %3, ptr noundef nonnull @.str.5) #13
  br i1 %call1.i, label %while.body.i, label %logor.exit, !llvm.loop !7

logor.exit:                                       ; preds = %while.body.i, %entry
  %node.0.i.lcssa = phi ptr [ %call.i, %entry ], [ %call.i.i31, %while.body.i ]
  %.lcssa = phi ptr [ %0, %entry ], [ %3, %while.body.i ]
  store ptr %.lcssa, ptr %tok.addr, align 8
  call void @llvm.lifetime.end.p0(i64 8, ptr nonnull %tok.addr.i)
  %call1 = tail call zeroext i1 @equal(ptr noundef %.lcssa, ptr noundef nonnull @.str.2) #13
  br i1 %call1, label %if.end, label %if.then

if.then:                                          ; preds = %logor.exit
  store ptr %.lcssa, ptr %rest, align 8
  br label %common.ret43

if.end:                                           ; preds = %logor.exit
  %next = getelementptr inbounds %struct.Token, ptr %.lcssa, i64 0, i32 1
  %4 = load ptr, ptr %next, align 8
  %call2 = tail call zeroext i1 @equal(ptr noundef %4, ptr noundef nonnull @.str.3) #13
  br i1 %call2, label %if.then3, label %if.end15

common.ret43:                                     ; preds = %if.end15, %if.then3, %if.then
  %common.ret43.op = phi ptr [ %node.0.i.lcssa, %if.then ], [ %call.i.i25, %if.then3 ], [ %call.i29, %if.end15 ]
  ret ptr %common.ret43.op

if.then3:                                         ; preds = %if.end
  tail call void @add_type(ptr noundef %node.0.i.lcssa) #13
  %ty = getelementptr inbounds %struct.Node, ptr %node.0.i.lcssa, i64 0, i32 2
  %5 = load ptr, ptr %ty, align 16
  %call.i.i = tail call noalias dereferenceable_or_null(144) ptr @calloc(i64 noundef 1, i64 noundef 144) #14
  %name1.i.i = getelementptr inbounds %struct.Obj, ptr %call.i.i, i64 0, i32 1
  store ptr @.str.4, ptr %name1.i.i, align 8
  %ty2.i.i = getelementptr inbounds %struct.Obj, ptr %call.i.i, i64 0, i32 2
  store ptr %5, ptr %ty2.i.i, align 8
  %align.i.i = getelementptr inbounds %struct.Type, ptr %5, i64 0, i32 2
  %6 = load i32, ptr %align.i.i, align 8
  %align3.i.i = getelementptr inbounds %struct.Obj, ptr %call.i.i, i64 0, i32 5
  store i32 %6, ptr %align3.i.i, align 4
  %call.i.i.i = tail call noalias dereferenceable_or_null(32) ptr @calloc(i64 noundef 1, i64 noundef 32) #14
  %7 = load ptr, ptr @scope, align 8
  %vars.i.i.i = getelementptr inbounds %struct.Scope, ptr %7, i64 0, i32 1
  tail call void @hashmap_put(ptr noundef nonnull %vars.i.i.i, ptr noundef nonnull @.str.4, ptr noundef %call.i.i.i) #13
  store ptr %call.i.i, ptr %call.i.i.i, align 8
  %is_local.i = getelementptr inbounds %struct.Obj, ptr %call.i.i, i64 0, i32 4
  store i8 1, ptr %is_local.i, align 8
  %8 = load ptr, ptr @locals, align 8
  store ptr %8, ptr %call.i.i, align 8
  store ptr %call.i.i, ptr @locals, align 8
  %call.i.i15 = tail call noalias noundef dereferenceable_or_null(288) ptr @calloc(i64 noundef 1, i64 noundef 288) #14
  store i32 40, ptr %call.i.i15, align 16
  %tok2.i.i = getelementptr inbounds %struct.Node, ptr %call.i.i15, i64 0, i32 3
  store ptr %.lcssa, ptr %tok2.i.i, align 8
  %var1.i = getelementptr inbounds %struct.Node, ptr %call.i.i15, i64 0, i32 32
  store ptr %call.i.i, ptr %var1.i, align 16
  %call.i.i16 = tail call noalias noundef dereferenceable_or_null(288) ptr @calloc(i64 noundef 1, i64 noundef 288) #14
  store i32 16, ptr %call.i.i16, align 16
  %tok2.i.i17 = getelementptr inbounds %struct.Node, ptr %call.i.i16, i64 0, i32 3
  store ptr %.lcssa, ptr %tok2.i.i17, align 8
  %lhs1.i = getelementptr inbounds %struct.Node, ptr %call.i.i16, i64 0, i32 4
  store ptr %call.i.i15, ptr %lhs1.i, align 16
  %rhs2.i = getelementptr inbounds %struct.Node, ptr %call.i.i16, i64 0, i32 5
  store ptr %node.0.i.lcssa, ptr %rhs2.i, align 8
  %call.i18 = tail call noalias noundef dereferenceable_or_null(288) ptr @calloc(i64 noundef 1, i64 noundef 288) #14
  store i32 17, ptr %call.i18, align 16
  %tok2.i = getelementptr inbounds %struct.Node, ptr %call.i18, i64 0, i32 3
  store ptr %.lcssa, ptr %tok2.i, align 8
  %call.i.i19 = tail call noalias noundef dereferenceable_or_null(288) ptr @calloc(i64 noundef 1, i64 noundef 288) #14
  store i32 40, ptr %call.i.i19, align 16
  %tok2.i.i20 = getelementptr inbounds %struct.Node, ptr %call.i.i19, i64 0, i32 3
  store ptr %.lcssa, ptr %tok2.i.i20, align 8
  %var1.i21 = getelementptr inbounds %struct.Node, ptr %call.i.i19, i64 0, i32 32
  store ptr %call.i.i, ptr %var1.i21, align 16
  %cond9 = getelementptr inbounds %struct.Node, ptr %call.i18, i64 0, i32 6
  store ptr %call.i.i19, ptr %cond9, align 16
  %call.i.i22 = tail call noalias noundef dereferenceable_or_null(288) ptr @calloc(i64 noundef 1, i64 noundef 288) #14
  store i32 40, ptr %call.i.i22, align 16
  %tok2.i.i23 = getelementptr inbounds %struct.Node, ptr %call.i.i22, i64 0, i32 3
  store ptr %.lcssa, ptr %tok2.i.i23, align 8
  %var1.i24 = getelementptr inbounds %struct.Node, ptr %call.i.i22, i64 0, i32 32
  store ptr %call.i.i, ptr %var1.i24, align 16
  %then = getelementptr inbounds %struct.Node, ptr %call.i18, i64 0, i32 7
  store ptr %call.i.i22, ptr %then, align 8
  %9 = load ptr, ptr %next, align 8
  %next12 = getelementptr inbounds %struct.Token, ptr %9, i64 0, i32 1
  %10 = load ptr, ptr %next12, align 8
  %call13 = tail call fastcc ptr @conditional(ptr noundef %rest, ptr noundef %10)
  %els = getelementptr inbounds %struct.Node, ptr %call.i18, i64 0, i32 8
  store ptr %call13, ptr %els, align 16
  %call.i.i25 = tail call noalias noundef dereferenceable_or_null(288) ptr @calloc(i64 noundef 1, i64 noundef 288) #14
  store i32 18, ptr %call.i.i25, align 16
  %tok2.i.i26 = getelementptr inbounds %struct.Node, ptr %call.i.i25, i64 0, i32 3
  store ptr %.lcssa, ptr %tok2.i.i26, align 8
  %lhs1.i27 = getelementptr inbounds %struct.Node, ptr %call.i.i25, i64 0, i32 4
  store ptr %call.i.i16, ptr %lhs1.i27, align 16
  %rhs2.i28 = getelementptr inbounds %struct.Node, ptr %call.i.i25, i64 0, i32 5
  store ptr %call.i18, ptr %rhs2.i28, align 8
  br label %common.ret43

if.end15:                                         ; preds = %if.end
  %call.i29 = tail call noalias noundef dereferenceable_or_null(288) ptr @calloc(i64 noundef 1, i64 noundef 288) #14
  store i32 17, ptr %call.i29, align 16
  %tok2.i30 = getelementptr inbounds %struct.Node, ptr %call.i29, i64 0, i32 3
  store ptr %.lcssa, ptr %tok2.i30, align 8
  %cond17 = getelementptr inbounds %struct.Node, ptr %call.i29, i64 0, i32 6
  store ptr %node.0.i.lcssa, ptr %cond17, align 16
  %11 = load ptr, ptr %next, align 8
  %call19 = call fastcc ptr @expr(ptr noundef nonnull %tok.addr, ptr noundef %11)
  %then20 = getelementptr inbounds %struct.Node, ptr %call.i29, i64 0, i32 7
  store ptr %call19, ptr %then20, align 8
  %12 = load ptr, ptr %tok.addr, align 8
  %call21 = tail call ptr @skip(ptr noundef %12, ptr noundef nonnull @.str.3) #13
  %call22 = tail call fastcc ptr @conditional(ptr noundef %rest, ptr noundef %call21)
  %els23 = getelementptr inbounds %struct.Node, ptr %call.i29, i64 0, i32 8
  store ptr %call22, ptr %els23, align 16
  br label %common.ret43
}